; Function Attrs: mustprogress nofree norecurse nosync nounwind willreturn memory(read, inaccessiblemem: none) uwtable
define float @Mio_LibraryReadDelayAigNode(ptr noundef readonly captures(none) %0) local_unnamed_addr #1 {
  %2 = getelementptr inbounds nuw i8, ptr %0, i64 80
  %3 = load ptr, ptr %2, align 8, !tbaa !31
  %.not = icmp eq ptr %3, null
  br i1 %.not, label %4, label %Mio_LibraryReadDelayNand2Max.exit.sink.split

4:                                                ; preds = %1
  %5 = getelementptr inbounds nuw i8, ptr %0, i64 72
  %6 = load ptr, ptr %5, align 8, !tbaa !30
  %.not.i3 = icmp eq ptr %6, null
  br i1 %.not.i3, label %Mio_LibraryReadDelayNand2Max.exit, label %Mio_LibraryReadDelayNand2Max.exit.sink.split

Mio_LibraryReadDelayNand2Max.exit.sink.split:     ; preds = %4, %1
  %.sink = phi ptr [ %3, %1 ], [ %6, %4 ]
  %7 = getelementptr inbounds nuw i8, ptr %.sink, i64 24
  %8 = load ptr, ptr %7, align 8, !tbaa !34
  %9 = getelementptr inbounds nuw i8, ptr %8, i64 64
  %10 = load double, ptr %9, align 8, !tbaa !42
  %11 = fptrunc double %10 to float
  br label %Mio_LibraryReadDelayNand2Max.exit

Mio_LibraryReadDelayNand2Max.exit:                ; preds = %Mio_LibraryReadDelayNand2Max.exit.sink.split, %4
  %12 = phi float [ 0.000000e+00, %4 ], [ %11, %Mio_LibraryReadDelayNand2Max.exit.sink.split ]
  ret float %12
}